; Function Attrs: mustprogress uwtable
define internal void @_ZN12_GLOBAL__N_117NormalizeFileNameB5cxx11ESt17basic_string_viewIcSt11char_traitsIcEE(ptr noalias sret(%"class.std::__cxx11::basic_string") align 8 %agg.result, i64 %fname.coerce0, ptr %fname.coerce1) #3 personality ptr @__gxx_personality_v0 {
entry:
  %agg.tmp.i = alloca %"struct.std::__cxx11::basic_string<char>::__sv_wrapper", align 8
  %ref.tmp2 = alloca %"class.std::allocator", align 1
  %cmp.not.i.i = icmp ult i64 %fname.coerce0, 5
  br i1 %cmp.not.i.i, label %if.end, label %if.then.i.i

if.then.i.i:                                      ; preds = %entry
  %sub.i.i = add i64 %fname.coerce0, -5
  br label %do.body.i.i

do.body.i.i:                                      ; preds = %if.then.i.i, %do.cond.i.i
  %__pos.addr.0.i.i = phi i64 [ %dec.i.i, %do.cond.i.i ], [ %sub.i.i, %if.then.i.i ]
  %add.ptr.i.i = getelementptr inbounds i8, ptr %fname.coerce1, i64 %__pos.addr.0.i.i
  %bcmp.i.i = tail call i32 @bcmp(ptr noundef nonnull dereferenceable(5) %add.ptr.i.i, ptr noundef nonnull dereferenceable(5) @.str.51, i64 5)
  %cmp5.i.i = icmp eq i32 %bcmp.i.i, 0
  br i1 %cmp5.i.i, label %if.then, label %do.cond.i.i

do.cond.i.i:                                      ; preds = %do.body.i.i
  %dec.i.i = add i64 %__pos.addr.0.i.i, -1
  %cmp7.not.i.i = icmp eq i64 %__pos.addr.0.i.i, 0
  br i1 %cmp7.not.i.i, label %if.end, label %do.body.i.i, !llvm.loop !43

if.then:                                          ; preds = %do.body.i.i
  %cmp.i.i = icmp ugt i64 %__pos.addr.0.i.i, %fname.coerce0
  br i1 %cmp.i.i, label %if.then.i.i2, label %_ZNKSt17basic_string_viewIcSt11char_traitsIcEE6substrEmm.exit

if.then.i.i2:                                     ; preds = %if.then
  tail call void (ptr, ...) @_ZSt24__throw_out_of_range_fmtPKcz(ptr noundef nonnull @.str.53, ptr noundef nonnull @.str.52, i64 noundef %__pos.addr.0.i.i, i64 noundef %fname.coerce0) #26
  unreachable

_ZNKSt17basic_string_viewIcSt11char_traitsIcEE6substrEmm.exit: ; preds = %if.then
  %sub.i = sub i64 %fname.coerce0, %__pos.addr.0.i.i
  br label %if.end

if.end:                                           ; preds = %do.cond.i.i, %entry, %_ZNKSt17basic_string_viewIcSt11char_traitsIcEE6substrEmm.exit
  %fname.sroa.5.0 = phi ptr [ %add.ptr.i.i, %_ZNKSt17basic_string_viewIcSt11char_traitsIcEE6substrEmm.exit ], [ %fname.coerce1, %entry ], [ %fname.coerce1, %do.cond.i.i ]
  %fname.sroa.0.0 = phi i64 [ %sub.i, %_ZNKSt17basic_string_viewIcSt11char_traitsIcEE6substrEmm.exit ], [ %fname.coerce0, %entry ], [ %fname.coerce0, %do.cond.i.i ]
  call void @_ZNSaIcEC1Ev(ptr noundef nonnull align 1 dereferenceable(1) %ref.tmp2) #23
  call void @llvm.lifetime.start.p0(i64 16, ptr nonnull %agg.tmp.i)
  %call.i = call { i64, ptr } @_ZNSt7__cxx1112basic_stringIcSt11char_traitsIcESaIcEE17_S_to_string_viewESt17basic_string_viewIcS2_E(i64 %fname.sroa.0.0, ptr %fname.sroa.5.0) #23
  %0 = extractvalue { i64, ptr } %call.i, 0
  %1 = extractvalue { i64, ptr } %call.i, 1
  call void @_ZNSt7__cxx1112basic_stringIcSt11char_traitsIcESaIcEE12__sv_wrapperC1ESt17basic_string_viewIcS2_E(ptr noundef nonnull align 8 dereferenceable(16) %agg.tmp.i, i64 %0, ptr %1) #23
  %2 = load i64, ptr %agg.tmp.i, align 8
  %3 = getelementptr inbounds i8, ptr %agg.tmp.i, i64 8
  %4 = load ptr, ptr %3, align 8
  invoke void @_ZNSt7__cxx1112basic_stringIcSt11char_traitsIcESaIcEEC2ENS4_12__sv_wrapperERKS3_(ptr noundef nonnull align 8 dereferenceable(32) %agg.result, i64 %2, ptr %4, ptr noundef nonnull align 1 dereferenceable(1) %ref.tmp2)
          to label %invoke.cont unwind label %lpad

invoke.cont:                                      ; preds = %if.end
  call void @llvm.lifetime.end.p0(i64 16, ptr nonnull %agg.tmp.i)
  call void @_ZNSaIcED1Ev(ptr noundef nonnull align 1 dereferenceable(1) %ref.tmp2) #23
  ret void

lpad:                                             ; preds = %if.end
  %5 = landingpad { ptr, i32 }
          cleanup
  call void @_ZNSaIcED1Ev(ptr noundef nonnull align 1 dereferenceable(1) %ref.tmp2) #23
  resume { ptr, i32 } %5
}